; ModuleID = 'source-C-CXX/22/1100.c'
source_filename = "source-C-CXX/22/1100.c"
target datalayout = "e-m:e-p270:32:32-p271:32:32-p272:64:64-i64:64-f80:128-n8:16:32:64-S128"
target triple = "x86_64-pc-linux-gnu"

%struct._IO_FILE = type { i32, i8*, i8*, i8*, i8*, i8*, i8*, i8*, i8*, i8*, i8*, i8*, %struct._IO_marker*, %struct._IO_FILE*, i32, i32, i64, i16, i8, [1 x i8], i8*, i64, %struct._IO_codecvt*, %struct._IO_wide_data*, %struct._IO_FILE*, i8*, i64, i32, [20 x i8] }
%struct._IO_marker = type opaque
%struct._IO_codecvt = type opaque
%struct._IO_wide_data = type opaque

@stdout = external local_unnamed_addr global %struct._IO_FILE*, align 8

; Function Attrs: nounwind sspstrong uwtable
define dso_local i32 @main() local_unnamed_addr #0 {
  %1 = alloca [200 x i8], align 16
  %2 = getelementptr inbounds [200 x i8], [200 x i8]* %1, i64 0, i64 0
  call void @llvm.lifetime.start.p0i8(i64 200, i8* nonnull %2) #5
  %3 = call i32 (i8*, ...) bitcast (i32 (...)* @gets to i32 (i8*, ...)*)(i8* nonnull %2) #5
  %4 = call i64 @strlen(i8* noundef nonnull %2) #6
  %5 = trunc i64 %4 to i32
  %6 = icmp sgt i32 %5, 0
  br i1 %6, label %7, label %54

7:                                                ; preds = %0
  %8 = shl i64 %4, 32
  %9 = ashr exact i64 %8, 32
  %10 = and i64 %4, 4294967295
  br label %15

11:                                               ; preds = %40
  %12 = icmp sgt i32 %41, 0
  br i1 %12, label %13, label %54

13:                                               ; preds = %11
  %14 = zext i32 %41 to i64
  br label %45

15:                                               ; preds = %7, %40
  %16 = phi i32 [ %5, %7 ], [ %41, %40 ]
  %17 = phi i64 [ %10, %7 ], [ %44, %40 ]
  %18 = phi i64 [ %9, %7 ], [ %43, %40 ]
  %19 = phi i32 [ %5, %7 ], [ %20, %40 ]
  %20 = add nsw i32 %19, -1
  %21 = zext i32 %20 to i64
  %22 = getelementptr inbounds [200 x i8], [200 x i8]* %1, i64 0, i64 %21
  %23 = load i8, i8* %22, align 1, !tbaa !5
  %24 = icmp eq i8 %23, 32
  br i1 %24, label %25, label %40

25:                                               ; preds = %15
  %26 = sext i32 %16 to i64
  %27 = icmp slt i64 %17, %26
  br i1 %27, label %28, label %37

28:                                               ; preds = %25, %28
  %29 = phi i64 [ %35, %28 ], [ %18, %25 ]
  %30 = getelementptr inbounds [200 x i8], [200 x i8]* %1, i64 0, i64 %29
  %31 = load i8, i8* %30, align 1, !tbaa !5
  %32 = sext i8 %31 to i32
  %33 = load %struct._IO_FILE*, %struct._IO_FILE** @stdout, align 8, !tbaa !8
  %34 = call i32 @putc(i32 %32, %struct._IO_FILE* %33) #5
  %35 = add nsw i64 %29, 1
  %36 = icmp slt i64 %35, %26
  br i1 %36, label %28, label %37, !llvm.loop !10

37:                                               ; preds = %28, %25
  %38 = load %struct._IO_FILE*, %struct._IO_FILE** @stdout, align 8, !tbaa !8
  %39 = call i32 @putc(i32 32, %struct._IO_FILE* %38) #5
  br label %40

40:                                               ; preds = %15, %37
  %41 = phi i32 [ %20, %37 ], [ %16, %15 ]
  %42 = icmp sgt i64 %17, 1
  %43 = add nsw i64 %18, -1
  %44 = add nsw i64 %17, -1
  br i1 %42, label %15, label %11, !llvm.loop !12

45:                                               ; preds = %13, %45
  %46 = phi i64 [ 0, %13 ], [ %52, %45 ]
  %47 = getelementptr inbounds [200 x i8], [200 x i8]* %1, i64 0, i64 %46
  %48 = load i8, i8* %47, align 1, !tbaa !5
  %49 = sext i8 %48 to i32
  %50 = load %struct._IO_FILE*, %struct._IO_FILE** @stdout, align 8, !tbaa !8
  %51 = call i32 @putc(i32 %49, %struct._IO_FILE* %50) #5
  %52 = add nuw nsw i64 %46, 1
  %53 = icmp eq i64 %52, %14
  br i1 %53, label %54, label %45, !llvm.loop !13

54:                                               ; preds = %45, %0, %11
  call void @llvm.lifetime.end.p0i8(i64 200, i8* nonnull %2) #5
  ret i32 0
}

; Function Attrs: argmemonly mustprogress nofree nosync nounwind willreturn
declare void @llvm.lifetime.start.p0i8(i64 immarg, i8* nocapture) #1

declare i32 @gets(...) local_unnamed_addr #2

; Function Attrs: argmemonly mustprogress nofree nounwind readonly willreturn
declare i64 @strlen(i8* nocapture) local_unnamed_addr #3

; Function Attrs: argmemonly mustprogress nofree nosync nounwind willreturn
declare void @llvm.lifetime.end.p0i8(i64 immarg, i8* nocapture) #1

; Function Attrs: nofree nounwind
declare noundef i32 @putc(i32 noundef, %struct._IO_FILE* nocapture noundef) local_unnamed_addr #4


!llvm.module.flags = !{!0, !1, !2, !3}
!llvm.ident = !{!4}

!0 = !{i32 1, !"wchar_size", i32 4}
!1 = !{i32 7, !"PIC Level", i32 2}
!2 = !{i32 7, !"PIE Level", i32 2}
!3 = !{i32 7, !"uwtable", i32 1}
!4 = !{!"clang version 13.0.0"}
!5 = !{!6, !6, i64 0}
!6 = !{!"omnipotent char", !7, i64 0}
!7 = !{!"Simple C/C++ TBAA"}
!8 = !{!9, !9, i64 0}
!9 = !{!"any pointer", !6, i64 0}
!10 = distinct !{!10, !11}
!11 = !{!"llvm.loop.mustprogress"}
!12 = distinct !{!12, !11}
!13 = distinct !{!13, !11}
